; ModuleID = 'source-C-CXX/9/1251.c'
source_filename = "source-C-CXX/9/1251.c"
target datalayout = "e-m:e-p270:32:32-p271:32:32-p272:64:64-i64:64-f80:128-n8:16:32:64-S128"
target triple = "x86_64-pc-linux-gnu"

%struct._IO_FILE = type { i32, i8*, i8*, i8*, i8*, i8*, i8*, i8*, i8*, i8*, i8*, i8*, %struct._IO_marker*, %struct._IO_FILE*, i32, i32, i64, i16, i8, [1 x i8], i8*, i64, %struct._IO_codecvt*, %struct._IO_wide_data*, %struct._IO_FILE*, i8*, i64, i32, [20 x i8] }
%struct._IO_marker = type opaque
%struct._IO_codecvt = type opaque
%struct._IO_wide_data = type opaque

@.str = private unnamed_addr constant [3 x i8] c"%d\00", align 1
@stdin = external local_unnamed_addr global %struct._IO_FILE*, align 8

; Function Attrs: nofree nounwind sspstrong uwtable
define dso_local i32 @main() local_unnamed_addr #0 {
  %1 = alloca i32, align 4
  %2 = alloca [100 x i32], align 16
  %3 = alloca [100 x i32], align 16
  %4 = bitcast i32* %1 to i8*
  call void @llvm.lifetime.start.p0i8(i64 4, i8* nonnull %4) #4
  %5 = call i32 (i8*, ...) @__isoc99_scanf(i8* getelementptr inbounds ([3 x i8], [3 x i8]* @.str, i64 0, i64 0), i32* nonnull %1)
  %6 = bitcast [100 x i32]* %2 to i8*
  call void @llvm.lifetime.start.p0i8(i64 400, i8* nonnull %6) #4
  %7 = bitcast [100 x i32]* %3 to i8*
  call void @llvm.lifetime.start.p0i8(i64 400, i8* nonnull %7) #4
  %8 = load i32, i32* %1, align 4, !tbaa !5
  %9 = icmp sgt i32 %8, 0
  br i1 %9, label %14, label %10

10:                                               ; preds = %0
  %11 = sext i32 %8 to i64
  %12 = getelementptr inbounds [100 x i32], [100 x i32]* %2, i64 0, i64 %11
  store i32 0, i32* %12, align 4, !tbaa !5
  %13 = getelementptr inbounds [100 x i32], [100 x i32]* %3, i64 0, i64 %11
  store i32 0, i32* %13, align 4, !tbaa !5
  br label %159

14:                                               ; preds = %0, %14
  %15 = phi i64 [ %19, %14 ], [ 0, %0 ]
  %16 = getelementptr inbounds [100 x i32], [100 x i32]* %3, i64 0, i64 %15
  store i32 0, i32* %16, align 4, !tbaa !5
  %17 = getelementptr inbounds [100 x i32], [100 x i32]* %2, i64 0, i64 %15
  %18 = call i32 (i8*, ...) @__isoc99_scanf(i8* getelementptr inbounds ([3 x i8], [3 x i8]* @.str, i64 0, i64 0), i32* nonnull %17)
  %19 = add nuw nsw i64 %15, 1
  %20 = load i32, i32* %1, align 4, !tbaa !5
  %21 = sext i32 %20 to i64
  %22 = icmp slt i64 %19, %21
  br i1 %22, label %14, label %23, !llvm.loop !9

23:                                               ; preds = %14
  %24 = sext i32 %20 to i64
  %25 = getelementptr inbounds [100 x i32], [100 x i32]* %2, i64 0, i64 %24
  store i32 0, i32* %25, align 4, !tbaa !5
  %26 = getelementptr inbounds [100 x i32], [100 x i32]* %3, i64 0, i64 %24
  store i32 0, i32* %26, align 4, !tbaa !5
  %27 = icmp sgt i32 %20, 0
  br i1 %27, label %28, label %159

28:                                               ; preds = %23, %144
  %29 = phi i32 [ %149, %144 ], [ 0, %23 ]
  %30 = phi i64 [ %32, %144 ], [ %24, %23 ]
  %31 = add i32 %29, 1
  %32 = add nsw i64 %30, -1
  %33 = getelementptr inbounds [100 x i32], [100 x i32]* %2, i64 0, i64 %32
  %34 = icmp sgt i64 %30, %24
  br i1 %34, label %144, label %35

35:                                               ; preds = %28
  %36 = and i32 %31, 1
  %37 = icmp eq i32 %29, 0
  br i1 %37, label %129, label %38

38:                                               ; preds = %35
  %39 = and i32 %31, -2
  br label %110

40:                                               ; preds = %144
  br i1 %27, label %41, label %159

41:                                               ; preds = %40
  %42 = zext i32 %20 to i64
  %43 = icmp ult i32 %20, 8
  br i1 %43, label %107, label %44

44:                                               ; preds = %41
  %45 = and i64 %42, 4294967288
  %46 = add nsw i64 %45, -8
  %47 = lshr exact i64 %46, 3
  %48 = add nuw nsw i64 %47, 1
  %49 = and i64 %48, 1
  %50 = icmp eq i64 %46, 0
  br i1 %50, label %82, label %51

51:                                               ; preds = %44
  %52 = and i64 %48, 4611686018427387902
  br label %53

53:                                               ; preds = %53, %51
  %54 = phi i64 [ 0, %51 ], [ %79, %53 ]
  %55 = phi <4 x i32> [ zeroinitializer, %51 ], [ %77, %53 ]
  %56 = phi <4 x i32> [ zeroinitializer, %51 ], [ %78, %53 ]
  %57 = phi i64 [ %52, %51 ], [ %80, %53 ]
  %58 = getelementptr inbounds [100 x i32], [100 x i32]* %3, i64 0, i64 %54
  %59 = bitcast i32* %58 to <4 x i32>*
  %60 = load <4 x i32>, <4 x i32>* %59, align 16, !tbaa !5
  %61 = getelementptr inbounds i32, i32* %58, i64 4
  %62 = bitcast i32* %61 to <4 x i32>*
  %63 = load <4 x i32>, <4 x i32>* %62, align 16, !tbaa !5
  %64 = icmp sgt <4 x i32> %60, %55
  %65 = icmp sgt <4 x i32> %63, %56
  %66 = select <4 x i1> %64, <4 x i32> %60, <4 x i32> %55
  %67 = select <4 x i1> %65, <4 x i32> %63, <4 x i32> %56
  %68 = or i64 %54, 8
  %69 = getelementptr inbounds [100 x i32], [100 x i32]* %3, i64 0, i64 %68
  %70 = bitcast i32* %69 to <4 x i32>*
  %71 = load <4 x i32>, <4 x i32>* %70, align 16, !tbaa !5
  %72 = getelementptr inbounds i32, i32* %69, i64 4
  %73 = bitcast i32* %72 to <4 x i32>*
  %74 = load <4 x i32>, <4 x i32>* %73, align 16, !tbaa !5
  %75 = icmp sgt <4 x i32> %71, %66
  %76 = icmp sgt <4 x i32> %74, %67
  %77 = select <4 x i1> %75, <4 x i32> %71, <4 x i32> %66
  %78 = select <4 x i1> %76, <4 x i32> %74, <4 x i32> %67
  %79 = add nuw i64 %54, 16
  %80 = add i64 %57, -2
  %81 = icmp eq i64 %80, 0
  br i1 %81, label %82, label %53, !llvm.loop !11

82:                                               ; preds = %53, %44
  %83 = phi <4 x i32> [ undef, %44 ], [ %77, %53 ]
  %84 = phi <4 x i32> [ undef, %44 ], [ %78, %53 ]
  %85 = phi i64 [ 0, %44 ], [ %79, %53 ]
  %86 = phi <4 x i32> [ zeroinitializer, %44 ], [ %77, %53 ]
  %87 = phi <4 x i32> [ zeroinitializer, %44 ], [ %78, %53 ]
  %88 = icmp eq i64 %49, 0
  br i1 %88, label %100, label %89

89:                                               ; preds = %82
  %90 = getelementptr inbounds [100 x i32], [100 x i32]* %3, i64 0, i64 %85
  %91 = bitcast i32* %90 to <4 x i32>*
  %92 = load <4 x i32>, <4 x i32>* %91, align 16, !tbaa !5
  %93 = getelementptr inbounds i32, i32* %90, i64 4
  %94 = bitcast i32* %93 to <4 x i32>*
  %95 = load <4 x i32>, <4 x i32>* %94, align 16, !tbaa !5
  %96 = icmp sgt <4 x i32> %95, %87
  %97 = select <4 x i1> %96, <4 x i32> %95, <4 x i32> %87
  %98 = icmp sgt <4 x i32> %92, %86
  %99 = select <4 x i1> %98, <4 x i32> %92, <4 x i32> %86
  br label %100

100:                                              ; preds = %82, %89
  %101 = phi <4 x i32> [ %83, %82 ], [ %99, %89 ]
  %102 = phi <4 x i32> [ %84, %82 ], [ %97, %89 ]
  %103 = icmp sgt <4 x i32> %101, %102
  %104 = select <4 x i1> %103, <4 x i32> %101, <4 x i32> %102
  %105 = call i32 @llvm.vector.reduce.smax.v4i32(<4 x i32> %104)
  %106 = icmp eq i64 %45, %42
  br i1 %106, label %159, label %107

107:                                              ; preds = %41, %100
  %108 = phi i64 [ 0, %41 ], [ %45, %100 ]
  %109 = phi i32 [ 0, %41 ], [ %105, %100 ]
  br label %150

110:                                              ; preds = %180, %38
  %111 = phi i64 [ %30, %38 ], [ %182, %180 ]
  %112 = phi i32 [ 0, %38 ], [ %181, %180 ]
  %113 = phi i32 [ %39, %38 ], [ %183, %180 ]
  %114 = getelementptr inbounds [100 x i32], [100 x i32]* %3, i64 0, i64 %111
  %115 = load i32, i32* %114, align 4, !tbaa !5
  %116 = icmp sgt i32 %115, %112
  br i1 %116, label %117, label %123

117:                                              ; preds = %110
  %118 = getelementptr inbounds [100 x i32], [100 x i32]* %2, i64 0, i64 %111
  %119 = load i32, i32* %118, align 4, !tbaa !5
  %120 = load i32, i32* %33, align 4, !tbaa !5
  %121 = icmp sgt i32 %119, %120
  %122 = select i1 %121, i32 %112, i32 %115
  br label %123

123:                                              ; preds = %117, %110
  %124 = phi i32 [ %112, %110 ], [ %122, %117 ]
  %125 = add nsw i64 %111, 1
  %126 = getelementptr inbounds [100 x i32], [100 x i32]* %3, i64 0, i64 %125
  %127 = load i32, i32* %126, align 4, !tbaa !5
  %128 = icmp sgt i32 %127, %124
  br i1 %128, label %174, label %180

129:                                              ; preds = %180, %35
  %130 = phi i32 [ undef, %35 ], [ %181, %180 ]
  %131 = phi i64 [ %30, %35 ], [ %182, %180 ]
  %132 = phi i32 [ 0, %35 ], [ %181, %180 ]
  %133 = icmp eq i32 %36, 0
  br i1 %133, label %144, label %134

134:                                              ; preds = %129
  %135 = getelementptr inbounds [100 x i32], [100 x i32]* %3, i64 0, i64 %131
  %136 = load i32, i32* %135, align 4, !tbaa !5
  %137 = icmp sgt i32 %136, %132
  br i1 %137, label %138, label %144

138:                                              ; preds = %134
  %139 = getelementptr inbounds [100 x i32], [100 x i32]* %2, i64 0, i64 %131
  %140 = load i32, i32* %139, align 4, !tbaa !5
  %141 = load i32, i32* %33, align 4, !tbaa !5
  %142 = icmp sgt i32 %140, %141
  %143 = select i1 %142, i32 %132, i32 %136
  br label %144

144:                                              ; preds = %129, %134, %138, %28
  %145 = phi i32 [ 0, %28 ], [ %130, %129 ], [ %132, %134 ], [ %143, %138 ]
  %146 = add nsw i32 %145, 1
  %147 = getelementptr inbounds [100 x i32], [100 x i32]* %3, i64 0, i64 %32
  store i32 %146, i32* %147, align 4, !tbaa !5
  %148 = icmp sgt i64 %30, 1
  %149 = add i32 %29, 1
  br i1 %148, label %28, label %40, !llvm.loop !13

150:                                              ; preds = %107, %150
  %151 = phi i64 [ %157, %150 ], [ %108, %107 ]
  %152 = phi i32 [ %156, %150 ], [ %109, %107 ]
  %153 = getelementptr inbounds [100 x i32], [100 x i32]* %3, i64 0, i64 %151
  %154 = load i32, i32* %153, align 4, !tbaa !5
  %155 = icmp sgt i32 %154, %152
  %156 = select i1 %155, i32 %154, i32 %152
  %157 = add nuw nsw i64 %151, 1
  %158 = icmp eq i64 %157, %42
  br i1 %158, label %159, label %150, !llvm.loop !14

159:                                              ; preds = %150, %100, %23, %10, %40
  %160 = phi i32 [ 0, %40 ], [ 0, %10 ], [ 0, %23 ], [ %105, %100 ], [ %156, %150 ]
  %161 = call i32 (i8*, ...) @printf(i8* nonnull dereferenceable(1) getelementptr inbounds ([3 x i8], [3 x i8]* @.str, i64 0, i64 0), i32 %160)
  %162 = load %struct._IO_FILE*, %struct._IO_FILE** @stdin, align 8, !tbaa !16
  %163 = call i32 @getc(%struct._IO_FILE* %162) #4
  %164 = load %struct._IO_FILE*, %struct._IO_FILE** @stdin, align 8, !tbaa !16
  %165 = call i32 @getc(%struct._IO_FILE* %164) #4
  %166 = load %struct._IO_FILE*, %struct._IO_FILE** @stdin, align 8, !tbaa !16
  %167 = call i32 @getc(%struct._IO_FILE* %166) #4
  %168 = load %struct._IO_FILE*, %struct._IO_FILE** @stdin, align 8, !tbaa !16
  %169 = call i32 @getc(%struct._IO_FILE* %168) #4
  %170 = load %struct._IO_FILE*, %struct._IO_FILE** @stdin, align 8, !tbaa !16
  %171 = call i32 @getc(%struct._IO_FILE* %170) #4
  %172 = load %struct._IO_FILE*, %struct._IO_FILE** @stdin, align 8, !tbaa !16
  %173 = call i32 @getc(%struct._IO_FILE* %172) #4
  call void @llvm.lifetime.end.p0i8(i64 400, i8* nonnull %7) #4
  call void @llvm.lifetime.end.p0i8(i64 400, i8* nonnull %6) #4
  call void @llvm.lifetime.end.p0i8(i64 4, i8* nonnull %4) #4
  ret i32 0

174:                                              ; preds = %123
  %175 = getelementptr inbounds [100 x i32], [100 x i32]* %2, i64 0, i64 %125
  %176 = load i32, i32* %175, align 4, !tbaa !5
  %177 = load i32, i32* %33, align 4, !tbaa !5
  %178 = icmp sgt i32 %176, %177
  %179 = select i1 %178, i32 %124, i32 %127
  br label %180

180:                                              ; preds = %174, %123
  %181 = phi i32 [ %124, %123 ], [ %179, %174 ]
  %182 = add nsw i64 %111, 2
  %183 = add i32 %113, -2
  %184 = icmp eq i32 %183, 0
  br i1 %184, label %129, label %110, !llvm.loop !18
}

; Function Attrs: argmemonly mustprogress nofree nosync nounwind willreturn
declare void @llvm.lifetime.start.p0i8(i64 immarg, i8* nocapture) #1

; Function Attrs: nofree nounwind
declare noundef i32 @__isoc99_scanf(i8* nocapture noundef readonly, ...) local_unnamed_addr #2

; Function Attrs: argmemonly mustprogress nofree nosync nounwind willreturn
declare void @llvm.lifetime.end.p0i8(i64 immarg, i8* nocapture) #1

; Function Attrs: nofree nounwind
declare noundef i32 @printf(i8* nocapture noundef readonly, ...) local_unnamed_addr #2

; Function Attrs: nofree nounwind
declare noundef i32 @getc(%struct._IO_FILE* nocapture noundef) local_unnamed_addr #2

; Function Attrs: nofree nosync nounwind readnone willreturn
declare i32 @llvm.vector.reduce.smax.v4i32(<4 x i32>) #3


!llvm.module.flags = !{!0, !1, !2, !3}
!llvm.ident = !{!4}

!0 = !{i32 1, !"wchar_size", i32 4}
!1 = !{i32 7, !"PIC Level", i32 2}
!2 = !{i32 7, !"PIE Level", i32 2}
!3 = !{i32 7, !"uwtable", i32 1}
!4 = !{!"clang version 13.0.0"}
!5 = !{!6, !6, i64 0}
!6 = !{!"int", !7, i64 0}
!7 = !{!"omnipotent char", !8, i64 0}
!8 = !{!"Simple C/C++ TBAA"}
!9 = distinct !{!9, !10}
!10 = !{!"llvm.loop.mustprogress"}
!11 = distinct !{!11, !10, !12}
!12 = !{!"llvm.loop.isvectorized", i32 1}
!13 = distinct !{!13, !10}
!14 = distinct !{!14, !10, !15, !12}
!15 = !{!"llvm.loop.unroll.runtime.disable"}
!16 = !{!17, !17, i64 0}
!17 = !{!"any pointer", !7, i64 0}
!18 = distinct !{!18, !10}
